target datalayout = "e-m:e-p270:32:32-p271:32:32-p272:64:64-i64:64-i128:128-f80:128-n8:16:32:64-S128"
target triple = "x86_64-pc-linux-gnu"

%struct.tr2_tgt = type { ptr, ptr, ptr, ptr, ptr, ptr, ptr, ptr, ptr, ptr, ptr, ptr, ptr, ptr, ptr, ptr, ptr, ptr, ptr, ptr, ptr, ptr, ptr, ptr, ptr, ptr, ptr, ptr, ptr, ptr }

@trace2_enabled = internal global i32 0, align 4
@tr2_tgt_builtins = internal global [4 x ptr] [ptr @tr2_tgt_normal, ptr @tr2_tgt_perf, ptr @tr2_tgt_event, ptr null], align 16

; Function Attrs: nounwind uwtable
define dso_local void @trace2_region_leave_printf_va_fl(ptr noundef %0, i32 noundef %1, ptr noundef %2, ptr noundef %3, ptr noundef %4, ptr noundef %5, ptr noundef %6) #0 {
  %8 = alloca ptr, align 8
  %9 = alloca i32, align 4
  %10 = alloca ptr, align 8
  %11 = alloca ptr, align 8
  %12 = alloca ptr, align 8
  %13 = alloca ptr, align 8
  %14 = alloca ptr, align 8
  %15 = alloca ptr, align 8
  %16 = alloca i32, align 4
  %17 = alloca i64, align 8
  %18 = alloca i64, align 8
  %19 = alloca i64, align 8
  %20 = alloca i32, align 4
  store ptr %0, ptr %8, align 8, !tbaa !4
  store i32 %1, ptr %9, align 4, !tbaa !9
  store ptr %2, ptr %10, align 8, !tbaa !4
  store ptr %3, ptr %11, align 8, !tbaa !4
  store ptr %4, ptr %12, align 8, !tbaa !72
  store ptr %5, ptr %13, align 8, !tbaa !4
  store ptr %6, ptr %14, align 8, !tbaa !38
  call void @llvm.lifetime.start.p0(i64 8, ptr %15) #9
  call void @llvm.lifetime.start.p0(i64 4, ptr %16) #9
  call void @llvm.lifetime.start.p0(i64 8, ptr %17) #9
  call void @llvm.lifetime.start.p0(i64 8, ptr %18) #9
  call void @llvm.lifetime.start.p0(i64 8, ptr %19) #9
  %21 = load i32, ptr @trace2_enabled, align 4, !tbaa !9
  %22 = icmp ne i32 %21, 0
  br i1 %22, label %24, label %23

23:                                               ; preds = %7
  store i32 1, ptr %20, align 4
  br label %72

24:                                               ; preds = %7
  %25 = call i64 @getnanotime()
  %26 = udiv i64 %25, 1000
  store i64 %26, ptr %17, align 8, !tbaa !21
  %27 = load i64, ptr %17, align 8, !tbaa !21
  %28 = call i64 @tr2tls_absolute_elapsed(i64 noundef %27)
  store i64 %28, ptr %18, align 8, !tbaa !21
  %29 = load i64, ptr %17, align 8, !tbaa !21
  %30 = call i64 @tr2tls_region_elasped_self(i64 noundef %29)
  store i64 %30, ptr %19, align 8, !tbaa !21
  call void @tr2tls_pop_self()
  store i32 0, ptr %16, align 4, !tbaa !9
  %31 = load i32, ptr %16, align 4, !tbaa !9
  %32 = sext i32 %31 to i64
  %33 = getelementptr inbounds [4 x ptr], ptr @tr2_tgt_builtins, i64 0, i64 %32
  %34 = load ptr, ptr %33, align 8, !tbaa !11
  store ptr %34, ptr %15, align 8, !tbaa !11
  br label %35

35:                                               ; preds = %64, %24
  %36 = load ptr, ptr %15, align 8, !tbaa !11
  %37 = icmp ne ptr %36, null
  br i1 %37, label %38, label %71

38:                                               ; preds = %35
  %39 = load ptr, ptr %15, align 8, !tbaa !11
  %40 = getelementptr inbounds nuw %struct.tr2_tgt, ptr %39, i32 0, i32 0
  %41 = load ptr, ptr %40, align 8, !tbaa !13
  %42 = call i32 @tr2_dst_trace_want(ptr noundef %41)
  %43 = icmp ne i32 %42, 0
  br i1 %43, label %44, label %63

44:                                               ; preds = %38
  %45 = load ptr, ptr %15, align 8, !tbaa !11
  %46 = getelementptr inbounds nuw %struct.tr2_tgt, ptr %45, i32 0, i32 24
  %47 = load ptr, ptr %46, align 8, !tbaa !115
  %48 = icmp ne ptr %47, null
  br i1 %48, label %49, label %62

49:                                               ; preds = %44
  %50 = load ptr, ptr %15, align 8, !tbaa !11
  %51 = getelementptr inbounds nuw %struct.tr2_tgt, ptr %50, i32 0, i32 24
  %52 = load ptr, ptr %51, align 8, !tbaa !115
  %53 = load ptr, ptr %8, align 8, !tbaa !4
  %54 = load i32, ptr %9, align 4, !tbaa !9
  %55 = load i64, ptr %18, align 8, !tbaa !21
  %56 = load i64, ptr %19, align 8, !tbaa !21
  %57 = load ptr, ptr %10, align 8, !tbaa !4
  %58 = load ptr, ptr %11, align 8, !tbaa !4
  %59 = load ptr, ptr %12, align 8, !tbaa !72
  %60 = load ptr, ptr %13, align 8, !tbaa !4
  %61 = load ptr, ptr %14, align 8, !tbaa !38
  call void %52(ptr noundef %53, i32 noundef %54, i64 noundef %55, i64 noundef %56, ptr noundef %57, ptr noundef %58, ptr noundef %59, ptr noundef %60, ptr noundef %61)
  br label %62

62:                                               ; preds = %49, %44
  br label %63

63:                                               ; preds = %62, %38
  br label %64

64:                                               ; preds = %63
  %65 = load i32, ptr %16, align 4, !tbaa !9
  %66 = add nsw i32 %65, 1
  store i32 %66, ptr %16, align 4, !tbaa !9
  %67 = load i32, ptr %16, align 4, !tbaa !9
  %68 = sext i32 %67 to i64
  %69 = getelementptr inbounds [4 x ptr], ptr @tr2_tgt_builtins, i64 0, i64 %68
  %70 = load ptr, ptr %69, align 8, !tbaa !11
  store ptr %70, ptr %15, align 8, !tbaa !11
  br label %35, !llvm.loop !116

71:                                               ; preds = %35
  store i32 0, ptr %20, align 4
  br label %72

72:                                               ; preds = %71, %23
  call void @llvm.lifetime.end.p0(i64 8, ptr %19) #9
  call void @llvm.lifetime.end.p0(i64 8, ptr %18) #9
  call void @llvm.lifetime.end.p0(i64 8, ptr %17) #9
  call void @llvm.lifetime.end.p0(i64 4, ptr %16) #9
  call void @llvm.lifetime.end.p0(i64 8, ptr %15) #9
  %73 = load i32, ptr %20, align 4
  switch i32 %73, label %75 [
    i32 0, label %74
    i32 1, label %74
  ]

74:                                               ; preds = %72, %72
  ret void

75:                                               ; preds = %72
  unreachable
}