; Function Attrs: nounwind uwtable
define dso_local void @trace2_region_leave_printf_va_fl(ptr noundef %0, i32 noundef %1, ptr noundef %2, ptr noundef %3, ptr noundef %4, ptr noundef %5, ptr noundef %6) local_unnamed_addr #0 {
  %.b = load i1, ptr @trace2_enabled, align 4
  br i1 %.b, label %8, label %.loopexit

8:                                                ; preds = %7
  %9 = tail call i64 @getnanotime() #11
  %10 = udiv i64 %9, 1000
  %11 = tail call i64 @tr2tls_absolute_elapsed(i64 noundef %10) #11
  %12 = tail call i64 @tr2tls_region_elasped_self(i64 noundef %10) #11
  tail call void @tr2tls_pop_self() #11
  br label %13

13:                                               ; preds = %8, %20
  %indvars.iv = phi i64 [ 0, %8 ], [ %indvars.iv.next, %20 ]
  %.022 = phi ptr [ @tr2_tgt_normal, %8 ], [ %22, %20 ]
  %14 = load ptr, ptr %.022, align 8, !tbaa !14
  %15 = tail call i32 @tr2_dst_trace_want(ptr noundef %14) #11
  %.not19 = icmp eq i32 %15, 0
  br i1 %.not19, label %20, label %16

16:                                               ; preds = %13
  %17 = getelementptr inbounds nuw i8, ptr %.022, i64 192
  %18 = load ptr, ptr %17, align 8, !tbaa !74
  %.not20 = icmp eq ptr %18, null
  br i1 %.not20, label %20, label %19

19:                                               ; preds = %16
  tail call void %18(ptr noundef %0, i32 noundef %1, i64 noundef %11, i64 noundef %12, ptr noundef %2, ptr noundef %3, ptr noundef %4, ptr noundef %5, ptr noundef %6) #11
  br label %20

20:                                               ; preds = %13, %19, %16
  %indvars.iv.next = add nuw nsw i64 %indvars.iv, 1
  %21 = getelementptr inbounds nuw [4 x ptr], ptr @tr2_tgt_builtins, i64 0, i64 %indvars.iv.next
  %22 = load ptr, ptr %21, align 8, !tbaa !10
  %.not = icmp eq i64 %indvars.iv.next, 3
  br i1 %.not, label %.loopexit, label %13, !llvm.loop !75

.loopexit:                                        ; preds = %20, %7
  ret void
}